; Function Attrs: null_pointer_is_valid sspstrong uwtable
define internal noundef i32 @dissect_aim_snac_error(ptr noundef %0, ptr noundef %1, ptr noundef %2) #0 {
  %4 = getelementptr inbounds nuw i8, ptr %1, i64 8
  %5 = load ptr, ptr %4, align 8
  %6 = tail call zeroext i16 @tvb_get_ntohs(ptr noundef %0, i32 noundef 0)
  %7 = zext i16 %6 to i32
  %8 = tail call ptr @val_to_str(i32 noundef %7, ptr noundef nonnull @aim_snac_errors, ptr noundef nonnull @.str.610)
  tail call void @col_add_str(ptr noundef %5, i32 noundef 25, ptr noundef %8)
  %9 = load i32, ptr @hf_aim_snac_error, align 4
  %10 = tail call ptr @proto_tree_add_item(ptr noundef %2, i32 noundef %9, ptr noundef %0, i32 noundef 0, i32 noundef 2, i32 noundef 0)
  %11 = tail call i32 @tvb_reported_length_remaining(ptr noundef %0, i32 noundef 2)
  %12 = icmp sgt i32 %11, 0
  br i1 %12, label %.lr.ph.i, label %dissect_aim_tlv_sequence.exit

.lr.ph.i:                                         ; preds = %3, %.lr.ph.i
  %.07.i = phi i32 [ %13, %.lr.ph.i ], [ 2, %3 ]
  %13 = tail call fastcc i32 @dissect_aim_tlv(ptr noundef %0, ptr noundef %1, i32 noundef %.07.i, ptr noundef %2, ptr noundef nonnull @aim_client_tlvs)
  %14 = tail call i32 @tvb_reported_length_remaining(ptr noundef %0, i32 noundef %13)
  %15 = icmp sgt i32 %14, 0
  br i1 %15, label %.lr.ph.i, label %dissect_aim_tlv_sequence.exit, !llvm.loop !8

dissect_aim_tlv_sequence.exit:                    ; preds = %.lr.ph.i, %3
  %.0.lcssa.i = phi i32 [ 2, %3 ], [ %13, %.lr.ph.i ]
  ret i32 %.0.lcssa.i
}